target datalayout = "e-m:e-p270:32:32-p271:32:32-p272:64:64-i64:64-i128:128-f80:128-n8:16:32:64-S128"
target triple = "x86_64-pc-linux-gnu"

%struct.ForEachState = type { ptr, i32 }
%struct.RelationData = type { %struct.RelFileLocator, ptr, i32, i32, i8, i8, i8, i8, i8, i32, i32, i32, i32, ptr, ptr, i32, %struct.LockInfoData, ptr, ptr, ptr, ptr, ptr, i8, ptr, ptr, ptr, ptr, ptr, ptr, i32, ptr, i8, ptr, ptr, i32, i8, i32, ptr, i8, ptr, ptr, ptr, ptr, ptr, ptr, ptr, i32, ptr, ptr, ptr, ptr, ptr, ptr, ptr, ptr, ptr, ptr, ptr, ptr, ptr, ptr, ptr, ptr, ptr, ptr, ptr, i32, i8, ptr }
%struct.RelFileLocator = type { i32, i32, i32 }
%struct.LockInfoData = type { %struct.LockRelId }
%struct.LockRelId = type { i32, i32 }
%struct.List = type { i32, i32, i32, ptr, [0 x %union.ListCell] }
%union.ListCell = type { ptr }
%struct.StatExtEntry = type { i32, ptr, ptr, ptr, ptr, i32, ptr }
%struct.VacAttrStats = type { i32, i32, i32, ptr, i32, ptr, ptr, i32, ptr, i8, float, i32, float, [5 x i16], [5 x i32], [5 x i32], [5 x i32], [5 x ptr], [5 x i32], [5 x ptr], [5 x i32], [5 x i16], [5 x i8], [5 x i8], i32, ptr, ptr, ptr, ptr, i32 }

@CurrentMemoryContext = external global ptr, align 8
@.str.4 = private unnamed_addr constant [25 x i8] c"ComputeExtStatisticsRows\00", align 1
@default_statistics_target = external global i32, align 4

; Function Attrs: nounwind uwtable
define internal i32 @statext_compute_stattarget(i32 noundef %0, i32 noundef %1, ptr noundef %2) #0 {
  %4 = alloca i32, align 4
  %5 = alloca i32, align 4
  %6 = alloca i32, align 4
  %7 = alloca ptr, align 8
  %8 = alloca i32, align 4
  %9 = alloca i32, align 4
  store i32 %0, ptr %5, align 4
  store i32 %1, ptr %6, align 4
  store ptr %2, ptr %7, align 8
  call void @llvm.lifetime.start.p0(i64 4, ptr %8) #8
  %10 = load i32, ptr %5, align 4
  %11 = icmp sge i32 %10, 0
  br i1 %11, label %12, label %14

12:                                               ; preds = %3
  %13 = load i32, ptr %5, align 4
  store i32 %13, ptr %4, align 4
  store i32 1, ptr %9, align 4
  br label %48

14:                                               ; preds = %3
  store i32 0, ptr %8, align 4
  br label %15

15:                                               ; preds = %38, %14
  %16 = load i32, ptr %8, align 4
  %17 = load i32, ptr %6, align 4
  %18 = icmp slt i32 %16, %17
  br i1 %18, label %19, label %41

19:                                               ; preds = %15
  %20 = load ptr, ptr %7, align 8
  %21 = load i32, ptr %8, align 4
  %22 = sext i32 %21 to i64
  %23 = getelementptr inbounds ptr, ptr %20, i64 %22
  %24 = load ptr, ptr %23, align 8
  %25 = getelementptr inbounds nuw %struct.VacAttrStats, ptr %24, i32 0, i32 0
  %26 = load i32, ptr %25, align 8
  %27 = load i32, ptr %5, align 4
  %28 = icmp sgt i32 %26, %27
  br i1 %28, label %29, label %37

29:                                               ; preds = %19
  %30 = load ptr, ptr %7, align 8
  %31 = load i32, ptr %8, align 4
  %32 = sext i32 %31 to i64
  %33 = getelementptr inbounds ptr, ptr %30, i64 %32
  %34 = load ptr, ptr %33, align 8
  %35 = getelementptr inbounds nuw %struct.VacAttrStats, ptr %34, i32 0, i32 0
  %36 = load i32, ptr %35, align 8
  store i32 %36, ptr %5, align 4
  br label %37

37:                                               ; preds = %29, %19
  br label %38

38:                                               ; preds = %37
  %39 = load i32, ptr %8, align 4
  %40 = add i32 %39, 1
  store i32 %40, ptr %8, align 4
  br label %15, !llvm.loop !15

41:                                               ; preds = %15
  %42 = load i32, ptr %5, align 4
  %43 = icmp slt i32 %42, 0
  br i1 %43, label %44, label %46

44:                                               ; preds = %41
  %45 = load i32, ptr @default_statistics_target, align 4
  store i32 %45, ptr %5, align 4
  br label %46

46:                                               ; preds = %44, %41
  %47 = load i32, ptr %5, align 4
  store i32 %47, ptr %4, align 4
  store i32 1, ptr %9, align 4
  br label %48

48:                                               ; preds = %46, %12
  call void @llvm.lifetime.end.p0(i64 4, ptr %8) #8
  %49 = load i32, ptr %4, align 4
  ret i32 %49
}

; Function Attrs: inlinehint nounwind uwtable
define internal ptr @MemoryContextSwitchTo(ptr noundef %0) #3 {
  %2 = alloca ptr, align 8
  %3 = alloca ptr, align 8
  store ptr %0, ptr %2, align 8
  call void @llvm.lifetime.start.p0(i64 8, ptr %3) #8
  %4 = load ptr, ptr @CurrentMemoryContext, align 8
  store ptr %4, ptr %3, align 8
  %5 = load ptr, ptr %2, align 8
  store ptr %5, ptr @CurrentMemoryContext, align 8
  %6 = load ptr, ptr %3, align 8
  call void @llvm.lifetime.end.p0(i64 8, ptr %3) #8
  ret ptr %6
}

; Function Attrs: nounwind uwtable
define dso_local i32 @ComputeExtStatisticsRows(ptr noundef %0, i32 noundef %1, ptr noundef %2) #0 {
  %4 = alloca i32, align 4
  %5 = alloca ptr, align 8
  %6 = alloca i32, align 4
  %7 = alloca ptr, align 8
  %8 = alloca ptr, align 8
  %9 = alloca ptr, align 8
  %10 = alloca ptr, align 8
  %11 = alloca ptr, align 8
  %12 = alloca ptr, align 8
  %13 = alloca i32, align 4
  %14 = alloca i32, align 4
  %15 = alloca i32, align 4
  %16 = alloca %struct.ForEachState, align 8
  %17 = alloca ptr, align 8
  %18 = alloca i32, align 4
  %19 = alloca ptr, align 8
  %20 = alloca i32, align 4
  store ptr %0, ptr %5, align 8
  store i32 %1, ptr %6, align 4
  store ptr %2, ptr %7, align 8
  call void @llvm.lifetime.start.p0(i64 8, ptr %8) #8
  call void @llvm.lifetime.start.p0(i64 8, ptr %9) #8
  call void @llvm.lifetime.start.p0(i64 8, ptr %10) #8
  call void @llvm.lifetime.start.p0(i64 8, ptr %11) #8
  call void @llvm.lifetime.start.p0(i64 8, ptr %12) #8
  call void @llvm.lifetime.start.p0(i64 4, ptr %13) #8
  store i32 0, ptr %13, align 4
  %21 = load i32, ptr %6, align 4
  %22 = icmp ne i32 %21, 0
  br i1 %22, label %24, label %23

23:                                               ; preds = %3
  store i32 0, ptr %4, align 4
  store i32 1, ptr %14, align 4
  br label %114

24:                                               ; preds = %3
  br label %25

25:                                               ; preds = %24
  br label %26

26:                                               ; preds = %25
  br label %27

27:                                               ; preds = %26
  store i32 1, ptr %15, align 4
  %28 = load ptr, ptr @CurrentMemoryContext, align 8
  %29 = call ptr @AllocSetContextCreateInternal(ptr noundef %28, ptr noundef @.str.4, i64 noundef 0, i64 noundef 8192, i64 noundef 8388608)
  store ptr %29, ptr %11, align 8
  %30 = load ptr, ptr %11, align 8
  %31 = call ptr @MemoryContextSwitchTo(ptr noundef %30)
  store ptr %31, ptr %12, align 8
  %32 = call ptr @table_open(i32 noundef 3381, i32 noundef 3)
  store ptr %32, ptr %8, align 8
  %33 = load ptr, ptr %8, align 8
  %34 = load ptr, ptr %5, align 8
  %35 = getelementptr inbounds nuw %struct.RelationData, ptr %34, i32 0, i32 15
  %36 = load i32, ptr %35, align 8
  %37 = call ptr @fetch_statentries_for_relation(ptr noundef %33, i32 noundef %36)
  store ptr %37, ptr %10, align 8
  call void @llvm.lifetime.start.p0(i64 16, ptr %16) #8
  %38 = getelementptr inbounds nuw %struct.ForEachState, ptr %16, i32 0, i32 0
  %39 = load ptr, ptr %10, align 8
  store ptr %39, ptr %38, align 8
  %40 = getelementptr inbounds nuw %struct.ForEachState, ptr %16, i32 0, i32 1
  store i32 0, ptr %40, align 8
  %41 = getelementptr i8, ptr %16, i64 12
  call void @llvm.memset.p0.i64(ptr align 4 %41, i8 0, i64 4, i1 false)
  br label %42

42:                                               ; preds = %103, %27
  %43 = getelementptr inbounds nuw %struct.ForEachState, ptr %16, i32 0, i32 0
  %44 = load ptr, ptr %43, align 8
  %45 = icmp ne ptr %44, null
  br i1 %45, label %46, label %63

46:                                               ; preds = %42
  %47 = getelementptr inbounds nuw %struct.ForEachState, ptr %16, i32 0, i32 1
  %48 = load i32, ptr %47, align 8
  %49 = getelementptr inbounds nuw %struct.ForEachState, ptr %16, i32 0, i32 0
  %50 = load ptr, ptr %49, align 8
  %51 = getelementptr inbounds nuw %struct.List, ptr %50, i32 0, i32 1
  %52 = load i32, ptr %51, align 4
  %53 = icmp slt i32 %48, %52
  br i1 %53, label %54, label %63

54:                                               ; preds = %46
  %55 = getelementptr inbounds nuw %struct.ForEachState, ptr %16, i32 0, i32 0
  %56 = load ptr, ptr %55, align 8
  %57 = getelementptr inbounds nuw %struct.List, ptr %56, i32 0, i32 3
  %58 = load ptr, ptr %57, align 8
  %59 = getelementptr inbounds nuw %struct.ForEachState, ptr %16, i32 0, i32 1
  %60 = load i32, ptr %59, align 8
  %61 = sext i32 %60 to i64
  %62 = getelementptr inbounds %union.ListCell, ptr %58, i64 %61
  store ptr %62, ptr %9, align 8
  br label %64

63:                                               ; preds = %46, %42
  store ptr null, ptr %9, align 8
  br label %64

64:                                               ; preds = %63, %54
  %65 = phi i32 [ 1, %54 ], [ 0, %63 ]
  %66 = icmp ne i32 %65, 0
  br i1 %66, label %68, label %67

67:                                               ; preds = %64
  store i32 4, ptr %14, align 4
  call void @llvm.lifetime.end.p0(i64 16, ptr %16) #8
  br label %107

68:                                               ; preds = %64
  call void @llvm.lifetime.start.p0(i64 8, ptr %17) #8
  %69 = load ptr, ptr %9, align 8
  %70 = load ptr, ptr %69, align 8
  store ptr %70, ptr %17, align 8
  call void @llvm.lifetime.start.p0(i64 4, ptr %18) #8
  call void @llvm.lifetime.start.p0(i64 8, ptr %19) #8
  call void @llvm.lifetime.start.p0(i64 4, ptr %20) #8
  %71 = load ptr, ptr %17, align 8
  %72 = getelementptr inbounds nuw %struct.StatExtEntry, ptr %71, i32 0, i32 3
  %73 = load ptr, ptr %72, align 8
  %74 = call i32 @bms_num_members(ptr noundef %73)
  store i32 %74, ptr %20, align 4
  %75 = load ptr, ptr %17, align 8
  %76 = getelementptr inbounds nuw %struct.StatExtEntry, ptr %75, i32 0, i32 3
  %77 = load ptr, ptr %76, align 8
  %78 = load ptr, ptr %17, align 8
  %79 = getelementptr inbounds nuw %struct.StatExtEntry, ptr %78, i32 0, i32 6
  %80 = load ptr, ptr %79, align 8
  %81 = load i32, ptr %6, align 4
  %82 = load ptr, ptr %7, align 8
  %83 = call ptr @lookup_var_attr_stats(ptr noundef %77, ptr noundef %80, i32 noundef %81, ptr noundef %82)
  store ptr %83, ptr %19, align 8
  %84 = load ptr, ptr %19, align 8
  %85 = icmp ne ptr %84, null
  br i1 %85, label %87, label %86

86:                                               ; preds = %68
  store i32 6, ptr %14, align 4
  br label %100

87:                                               ; preds = %68
  %88 = load ptr, ptr %17, align 8
  %89 = getelementptr inbounds nuw %struct.StatExtEntry, ptr %88, i32 0, i32 5
  %90 = load i32, ptr %89, align 8
  %91 = load i32, ptr %20, align 4
  %92 = load ptr, ptr %19, align 8
  %93 = call i32 @statext_compute_stattarget(i32 noundef %90, i32 noundef %91, ptr noundef %92)
  store i32 %93, ptr %18, align 4
  %94 = load i32, ptr %18, align 4
  %95 = load i32, ptr %13, align 4
  %96 = icmp sgt i32 %94, %95
  br i1 %96, label %97, label %99

97:                                               ; preds = %87
  %98 = load i32, ptr %18, align 4
  store i32 %98, ptr %13, align 4
  br label %99

99:                                               ; preds = %97, %87
  store i32 0, ptr %14, align 4
  br label %100

100:                                              ; preds = %99, %86
  call void @llvm.lifetime.end.p0(i64 4, ptr %20) #8
  call void @llvm.lifetime.end.p0(i64 8, ptr %19) #8
  call void @llvm.lifetime.end.p0(i64 4, ptr %18) #8
  call void @llvm.lifetime.end.p0(i64 8, ptr %17) #8
  %101 = load i32, ptr %14, align 4
  switch i32 %101, label %116 [
    i32 0, label %102
    i32 6, label %103
  ]

102:                                              ; preds = %100
  br label %103

103:                                              ; preds = %102, %100
  %104 = getelementptr inbounds nuw %struct.ForEachState, ptr %16, i32 0, i32 1
  %105 = load i32, ptr %104, align 8
  %106 = add i32 %105, 1
  store i32 %106, ptr %104, align 8
  br label %42, !llvm.loop !34

107:                                              ; preds = %67
  %108 = load ptr, ptr %8, align 8
  call void @table_close(ptr noundef %108, i32 noundef 3)
  %109 = load ptr, ptr %12, align 8
  %110 = call ptr @MemoryContextSwitchTo(ptr noundef %109)
  %111 = load ptr, ptr %11, align 8
  call void @MemoryContextDelete(ptr noundef %111)
  %112 = load i32, ptr %13, align 4
  %113 = mul i32 300, %112
  store i32 %113, ptr %4, align 4
  store i32 1, ptr %14, align 4
  br label %114

114:                                              ; preds = %107, %23
  call void @llvm.lifetime.end.p0(i64 4, ptr %13) #8
  call void @llvm.lifetime.end.p0(i64 8, ptr %12) #8
  call void @llvm.lifetime.end.p0(i64 8, ptr %11) #8
  call void @llvm.lifetime.end.p0(i64 8, ptr %10) #8
  call void @llvm.lifetime.end.p0(i64 8, ptr %9) #8
  call void @llvm.lifetime.end.p0(i64 8, ptr %8) #8
  %115 = load i32, ptr %4, align 4
  ret i32 %115

116:                                              ; preds = %100
  unreachable
}