; Function Attrs: nounwind uwtable
define dso_local i32 @ComputeExtStatisticsRows(ptr noundef readonly captures(none) %0, i32 noundef %1, ptr noundef readonly captures(none) %2) local_unnamed_addr #0 {
  %.not = icmp eq i32 %1, 0
  br i1 %.not, label %41, label %4

4:                                                ; preds = %3
  %5 = load ptr, ptr @CurrentMemoryContext, align 8
  %6 = tail call ptr @AllocSetContextCreateInternal(ptr noundef %5, ptr noundef nonnull @.str.4, i64 noundef 0, i64 noundef 8192, i64 noundef 8388608) #10
  %7 = load ptr, ptr @CurrentMemoryContext, align 8
  store ptr %6, ptr @CurrentMemoryContext, align 8
  %8 = tail call ptr @table_open(i32 noundef 3381, i32 noundef 3) #10
  %9 = getelementptr inbounds nuw i8, ptr %0, i64 72
  %10 = load i32, ptr %9, align 8
  %11 = tail call fastcc ptr @fetch_statentries_for_relation(ptr noundef %8, i32 noundef %10)
  %12 = getelementptr inbounds nuw i8, ptr %11, i64 4
  %.not32 = icmp eq ptr %11, null
  br i1 %.not32, label %._crit_edge, label %.lr.ph

.lr.ph:                                           ; preds = %4
  %13 = getelementptr inbounds nuw i8, ptr %11, i64 16
  %14 = load i32, ptr %12, align 4
  %15 = icmp sgt i32 %14, 0
  br i1 %15, label %.lr.ph44, label %._crit_edge

._crit_edge.loopexit:                             ; preds = %37
  %16 = mul i32 %.1, 300
  br label %._crit_edge

._crit_edge:                                      ; preds = %._crit_edge.loopexit, %.lr.ph, %4
  %.027.lcssa = phi i32 [ 0, %4 ], [ 0, %.lr.ph ], [ %16, %._crit_edge.loopexit ]
  tail call void @table_close(ptr noundef %8, i32 noundef 3) #10
  store ptr %7, ptr @CurrentMemoryContext, align 8
  tail call void @MemoryContextDelete(ptr noundef %6) #10
  br label %41

.lr.ph44:                                         ; preds = %.lr.ph, %37
  %indvars.iv = phi i64 [ %indvars.iv.next, %37 ], [ 0, %.lr.ph ]
  %.0273842 = phi i32 [ %.1, %37 ], [ 0, %.lr.ph ]
  %17 = load ptr, ptr %13, align 8
  %18 = getelementptr inbounds nuw %union.ListCell, ptr %17, i64 %indvars.iv
  %19 = load ptr, ptr %18, align 8
  %20 = getelementptr inbounds nuw i8, ptr %19, i64 24
  %21 = load ptr, ptr %20, align 8
  %22 = tail call i32 @bms_num_members(ptr noundef %21) #10
  %23 = load ptr, ptr %20, align 8
  %24 = getelementptr inbounds nuw i8, ptr %19, i64 48
  %25 = load ptr, ptr %24, align 8
  %26 = tail call fastcc ptr @lookup_var_attr_stats(ptr noundef %23, ptr noundef %25, i32 noundef %1, ptr noundef %2)
  %.not34 = icmp eq ptr %26, null
  br i1 %.not34, label %37, label %27

27:                                               ; preds = %.lr.ph44
  %28 = getelementptr inbounds nuw i8, ptr %19, i64 40
  %29 = load i32, ptr %28, align 8
  %30 = icmp sgt i32 %29, -1
  br i1 %30, label %statext_compute_stattarget.exit, label %.preheader.i

.preheader.i:                                     ; preds = %27
  %31 = icmp sgt i32 %22, 0
  br i1 %31, label %.lr.ph.preheader.i, label %._crit_edge.i

.lr.ph.preheader.i:                               ; preds = %.preheader.i
  %wide.trip.count.i = zext nneg i32 %22 to i64
  br label %.lr.ph.i

.lr.ph.i:                                         ; preds = %.lr.ph.i, %.lr.ph.preheader.i
  %indvars.iv.i = phi i64 [ 0, %.lr.ph.preheader.i ], [ %indvars.iv.next.i, %.lr.ph.i ]
  %.01318.i = phi i32 [ %29, %.lr.ph.preheader.i ], [ %spec.select.i, %.lr.ph.i ]
  %32 = getelementptr inbounds nuw ptr, ptr %26, i64 %indvars.iv.i
  %33 = load ptr, ptr %32, align 8
  %34 = load i32, ptr %33, align 8
  %spec.select.i = tail call i32 @llvm.smax.i32(i32 %34, i32 %.01318.i)
  %indvars.iv.next.i = add nuw nsw i64 %indvars.iv.i, 1
  %exitcond.not.i = icmp eq i64 %indvars.iv.next.i, %wide.trip.count.i
  br i1 %exitcond.not.i, label %._crit_edge.i, label %.lr.ph.i, !llvm.loop !4

._crit_edge.i:                                    ; preds = %.lr.ph.i, %.preheader.i
  %.013.lcssa.i = phi i32 [ %29, %.preheader.i ], [ %spec.select.i, %.lr.ph.i ]
  %35 = icmp slt i32 %.013.lcssa.i, 0
  %36 = load i32, ptr @default_statistics_target, align 4
  %spec.select17.i = select i1 %35, i32 %36, i32 %.013.lcssa.i
  br label %statext_compute_stattarget.exit

statext_compute_stattarget.exit:                  ; preds = %27, %._crit_edge.i
  %.012.i = phi i32 [ %spec.select17.i, %._crit_edge.i ], [ %29, %27 ]
  %spec.select = tail call i32 @llvm.smax.i32(i32 %.012.i, i32 %.0273842)
  br label %37

37:                                               ; preds = %.lr.ph44, %statext_compute_stattarget.exit
  %.1 = phi i32 [ %spec.select, %statext_compute_stattarget.exit ], [ %.0273842, %.lr.ph44 ]
  %indvars.iv.next = add nuw nsw i64 %indvars.iv, 1
  %38 = load i32, ptr %12, align 4
  %39 = sext i32 %38 to i64
  %40 = icmp slt i64 %indvars.iv.next, %39
  br i1 %40, label %.lr.ph44, label %._crit_edge.loopexit

41:                                               ; preds = %3, %._crit_edge
  %.0 = phi i32 [ %.027.lcssa, %._crit_edge ], [ 0, %3 ]
  ret i32 %.0
}